target datalayout = "e-m:e-p270:32:32-p271:32:32-p272:64:64-i64:64-i128:128-f80:128-n8:16:32:64-S128"
target triple = "x86_64-pc-linux-gnu"

%"struct.ozz::animation::TrackTriggeringJob" = type { float, float, float, ptr, ptr }
%"class.ozz::animation::TrackTriggeringJob::Iterator" = type { ptr, float, i64, %"struct.ozz::animation::TrackTriggeringJob::Edge" }
%"struct.ozz::animation::TrackTriggeringJob::Edge" = type { float, i8 }
%"struct.ozz::span" = type { ptr, i64 }
%"class.ozz::animation::internal::Track" = type { ptr, %"struct.ozz::span.0", %"struct.ozz::span.0", %"struct.ozz::span.1", ptr }
%"struct.ozz::span.0" = type { ptr, i64 }
%"struct.ozz::span.1" = type { ptr, i64 }

; Function Attrs: mustprogress nounwind uwtable
define linkonce_odr dso_local void @_ZN3ozz4spanIKfEC2EPS1_m(ptr noundef nonnull align 8 dereferenceable(16) %0, ptr noundef %1, i64 noundef %2) unnamed_addr #0 comdat align 2 {
  %4 = alloca ptr, align 8
  %5 = alloca ptr, align 8
  %6 = alloca i64, align 8
  store ptr %0, ptr %4, align 8, !tbaa !33
  store ptr %1, ptr %5, align 8, !tbaa !61
  store i64 %2, ptr %6, align 8, !tbaa !23
  %7 = load ptr, ptr %4, align 8
  %8 = getelementptr inbounds nuw %"struct.ozz::span", ptr %7, i32 0, i32 0
  %9 = load ptr, ptr %5, align 8, !tbaa !61
  store ptr %9, ptr %8, align 8, !tbaa !52
  %10 = getelementptr inbounds nuw %"struct.ozz::span", ptr %7, i32 0, i32 1
  %11 = load i64, ptr %6, align 8, !tbaa !23
  store i64 %11, ptr %10, align 8, !tbaa !35
  ret void
}

; Function Attrs: mustprogress uwtable
define linkonce_odr dso_local { ptr, i64 } @_ZNK3ozz4spanIfEcvNS0_IKfEEEv(ptr noundef nonnull align 8 dereferenceable(16) %0) #2 comdat align 2 {
  %2 = alloca %"struct.ozz::span", align 8
  %3 = alloca ptr, align 8
  store ptr %0, ptr %3, align 8, !tbaa !56
  %4 = load ptr, ptr %3, align 8
  %5 = getelementptr inbounds nuw %"struct.ozz::span.0", ptr %4, i32 0, i32 0
  %6 = load ptr, ptr %5, align 8, !tbaa !58
  %7 = getelementptr inbounds nuw %"struct.ozz::span.0", ptr %4, i32 0, i32 1
  %8 = load i64, ptr %7, align 8, !tbaa !60
  call void @_ZN3ozz4spanIKfEC2EPS1_m(ptr noundef nonnull align 8 dereferenceable(16) %2, ptr noundef %6, i64 noundef %8)
  %9 = load { ptr, i64 }, ptr %2, align 8
  ret { ptr, i64 } %9
}

; Function Attrs: mustprogress nounwind uwtable
define linkonce_odr dso_local noundef i64 @_ZNK3ozz4spanIKfE4sizeEv(ptr noundef nonnull align 8 dereferenceable(16) %0) #0 comdat align 2 {
  %2 = alloca ptr, align 8
  store ptr %0, ptr %2, align 8, !tbaa !33
  %3 = load ptr, ptr %2, align 8
  %4 = getelementptr inbounds nuw %"struct.ozz::span", ptr %3, i32 0, i32 1
  %5 = load i64, ptr %4, align 8, !tbaa !35
  ret i64 %5
}

; Function Attrs: mustprogress uwtable
define linkonce_odr dso_local { ptr, i64 } @_ZNK3ozz9animation8internal5TrackIfE6ratiosEv(ptr noundef nonnull align 8 dereferenceable(64) %0) #2 comdat align 2 {
  %2 = alloca %"struct.ozz::span", align 8
  %3 = alloca ptr, align 8
  store ptr %0, ptr %3, align 8, !tbaa !31
  %4 = load ptr, ptr %3, align 8
  %5 = getelementptr inbounds nuw %"class.ozz::animation::internal::Track", ptr %4, i32 0, i32 1
  %6 = call { ptr, i64 } @_ZNK3ozz4spanIfEcvNS0_IKfEEEv(ptr noundef nonnull align 8 dereferenceable(16) %5)
  %7 = getelementptr inbounds nuw { ptr, i64 }, ptr %2, i32 0, i32 0
  %8 = extractvalue { ptr, i64 } %6, 0
  store ptr %8, ptr %7, align 8
  %9 = getelementptr inbounds nuw { ptr, i64 }, ptr %2, i32 0, i32 1
  %10 = extractvalue { ptr, i64 } %6, 1
  store i64 %10, ptr %9, align 8
  %11 = load { ptr, i64 }, ptr %2, align 8
  ret { ptr, i64 } %11
}

; Function Attrs: mustprogress uwtable
define dso_local void @_ZN3ozz9animation18TrackTriggeringJob8IteratorC2EPKS1_(ptr noundef nonnull align 8 dereferenceable(32) %0, ptr noundef %1) unnamed_addr #2 align 2 {
  %3 = alloca ptr, align 8
  %4 = alloca ptr, align 8
  %5 = alloca %"struct.ozz::span", align 8
  store ptr %0, ptr %3, align 8, !tbaa !25
  store ptr %1, ptr %4, align 8, !tbaa !4
  %6 = load ptr, ptr %3, align 8
  %7 = getelementptr inbounds nuw %"class.ozz::animation::TrackTriggeringJob::Iterator", ptr %6, i32 0, i32 0
  %8 = load ptr, ptr %4, align 8, !tbaa !4
  store ptr %8, ptr %7, align 8, !tbaa !26
  %9 = getelementptr inbounds nuw %"class.ozz::animation::TrackTriggeringJob::Iterator", ptr %6, i32 0, i32 1
  store float 0.000000e+00, ptr %9, align 8, !tbaa !29
  %10 = getelementptr inbounds nuw %"class.ozz::animation::TrackTriggeringJob::Iterator", ptr %6, i32 0, i32 2
  store i64 0, ptr %10, align 8, !tbaa !30
  %11 = getelementptr inbounds nuw %"class.ozz::animation::TrackTriggeringJob::Iterator", ptr %6, i32 0, i32 0
  %12 = load ptr, ptr %11, align 8, !tbaa !26
  %13 = getelementptr inbounds nuw %"struct.ozz::animation::TrackTriggeringJob", ptr %12, i32 0, i32 0
  %14 = load float, ptr %13, align 8, !tbaa !19
  %15 = call float @llvm.floor.f32(float %14)
  %16 = getelementptr inbounds nuw %"class.ozz::animation::TrackTriggeringJob::Iterator", ptr %6, i32 0, i32 1
  store float %15, ptr %16, align 8, !tbaa !29
  %17 = getelementptr inbounds nuw %"class.ozz::animation::TrackTriggeringJob::Iterator", ptr %6, i32 0, i32 0
  %18 = load ptr, ptr %17, align 8, !tbaa !26
  %19 = getelementptr inbounds nuw %"struct.ozz::animation::TrackTriggeringJob", ptr %18, i32 0, i32 0
  %20 = load float, ptr %19, align 8, !tbaa !19
  %21 = getelementptr inbounds nuw %"class.ozz::animation::TrackTriggeringJob::Iterator", ptr %6, i32 0, i32 0
  %22 = load ptr, ptr %21, align 8, !tbaa !26
  %23 = getelementptr inbounds nuw %"struct.ozz::animation::TrackTriggeringJob", ptr %22, i32 0, i32 1
  %24 = load float, ptr %23, align 4, !tbaa !20
  %25 = fcmp olt float %20, %24
  call void @llvm.lifetime.start.p0(i64 16, ptr %5) #7
  br i1 %25, label %26, label %27

26:                                               ; preds = %2
  br label %38

27:                                               ; preds = %2
  %28 = load ptr, ptr %4, align 8, !tbaa !4
  %29 = getelementptr inbounds nuw %"struct.ozz::animation::TrackTriggeringJob", ptr %28, i32 0, i32 3
  %30 = load ptr, ptr %29, align 8, !tbaa !11
  %31 = call { ptr, i64 } @_ZNK3ozz9animation8internal5TrackIfE6ratiosEv(ptr noundef nonnull align 8 dereferenceable(64) %30)
  %32 = getelementptr inbounds nuw { ptr, i64 }, ptr %5, i32 0, i32 0
  %33 = extractvalue { ptr, i64 } %31, 0
  store ptr %33, ptr %32, align 8
  %34 = getelementptr inbounds nuw { ptr, i64 }, ptr %5, i32 0, i32 1
  %35 = extractvalue { ptr, i64 } %31, 1
  store i64 %35, ptr %34, align 8
  %36 = call noundef i64 @_ZNK3ozz4spanIKfE4sizeEv(ptr noundef nonnull align 8 dereferenceable(16) %5)
  %37 = sub i64 %36, 1
  br label %38

38:                                               ; preds = %27, %26
  %39 = phi i64 [ 0, %26 ], [ %37, %27 ]
  %40 = getelementptr inbounds nuw %"class.ozz::animation::TrackTriggeringJob::Iterator", ptr %6, i32 0, i32 2
  store i64 %39, ptr %40, align 8, !tbaa !30
  call void @llvm.lifetime.end.p0(i64 16, ptr %5) #7
  %41 = call noundef nonnull align 8 dereferenceable(32) ptr @_ZN3ozz9animation18TrackTriggeringJob8IteratorppEv(ptr noundef nonnull align 8 dereferenceable(32) %6)
  ret void
}