; Function Attrs: mustprogress nofree norecurse nosync nounwind memory(read, argmem: readwrite, inaccessiblemem: none) uwtable
define dso_local void @_ZN3ozz9animation18TrackTriggeringJob8IteratorC2EPKS1_(ptr noundef nonnull align 8 dereferenceable(32) initializes((0, 12), (16, 24)) %0, ptr noundef %1) unnamed_addr #4 align 2 {
  store ptr %1, ptr %0, align 8, !tbaa !20
  %3 = getelementptr inbounds nuw i8, ptr %0, i64 8
  %4 = load float, ptr %1, align 8, !tbaa !13
  %5 = tail call float @llvm.floor.f32(float %4)
  store float %5, ptr %3, align 8, !tbaa !24
  %6 = getelementptr inbounds nuw i8, ptr %1, i64 4
  %7 = load float, ptr %6, align 4, !tbaa !14
  %8 = fcmp olt float %4, %7
  br i1 %8, label %15, label %9

9:                                                ; preds = %2
  %10 = getelementptr inbounds nuw i8, ptr %1, i64 16
  %11 = load ptr, ptr %10, align 8, !tbaa !4
  %12 = getelementptr inbounds nuw i8, ptr %11, i64 16
  %13 = load i64, ptr %12, align 8, !tbaa !25
  %14 = add i64 %13, -1
  br label %15

15:                                               ; preds = %2, %9
  %16 = phi i64 [ %14, %9 ], [ 0, %2 ]
  %17 = getelementptr inbounds nuw i8, ptr %0, i64 16
  store i64 %16, ptr %17, align 8, !tbaa !28
  %18 = tail call noundef nonnull align 8 dereferenceable(32) ptr @_ZN3ozz9animation18TrackTriggeringJob8IteratorppEv(ptr noundef nonnull align 8 dereferenceable(32) %0)
  ret void
}